target datalayout = "e-m:e-p270:32:32-p271:32:32-p272:64:64-i64:64-i128:128-f80:128-n8:16:32:64-S128"
target triple = "x86_64-pc-linux-gnu"

%struct.SDL_AtomicInt = type { i32 }
%struct.SDL_Camera = type { ptr, ptr, i32, %struct.SDL_AtomicInt, ptr, ptr, ptr, ptr, i32, %struct.SDL_CameraSpec, %struct.SDL_CameraSpec, i32, ptr, i32, i64, i64, ptr, ptr, [8 x %struct.SurfaceList], %struct.SurfaceList, %struct.SurfaceList, %struct.SurfaceList, ptr, i32, i8, %struct.SDL_AtomicInt, %struct.SDL_AtomicInt, ptr, i32, i32, ptr }
%struct.SDL_CameraSpec = type { i32, i32, i32, i32, i32, i32 }
%struct.SurfaceList = type { ptr, i64, ptr }
%struct.SDL_Surface = type { i32, i32, i32, i32, i32, ptr, i32, ptr, i32, i32, ptr, i32, ptr, i32, ptr, i32, %struct.SDL_Rect, %struct.SDL_BlitMap }
%struct.SDL_Rect = type { i32, i32, i32, i32 }
%struct.SDL_BlitMap = type { i32, ptr, ptr, %struct.SDL_BlitInfo, i32, i32 }
%struct.SDL_BlitInfo = type { ptr, ptr, i32, i32, i32, i32, ptr, ptr, i32, i32, i32, i32, ptr, ptr, ptr, ptr, ptr, ptr, i32, i32, i8, i8, i8, i8 }

; Function Attrs: nounwind uwtable
define internal i64 @GetFrameBufLen(ptr noundef %0) #0 {
  %2 = alloca i64, align 8
  %3 = alloca ptr, align 8
  %4 = alloca i64, align 8
  %5 = alloca i64, align 8
  %6 = alloca i64, align 8
  %7 = alloca i32, align 4
  %8 = alloca i32, align 4
  store ptr %0, ptr %3, align 8
  call void @llvm.lifetime.start.p0(i64 8, ptr %4) #7
  %9 = load ptr, ptr %3, align 8
  %10 = getelementptr inbounds nuw %struct.SDL_CameraSpec, ptr %9, i32 0, i32 2
  %11 = load i32, ptr %10, align 4
  %12 = sext i32 %11 to i64
  store i64 %12, ptr %4, align 8
  call void @llvm.lifetime.start.p0(i64 8, ptr %5) #7
  %13 = load ptr, ptr %3, align 8
  %14 = getelementptr inbounds nuw %struct.SDL_CameraSpec, ptr %13, i32 0, i32 3
  %15 = load i32, ptr %14, align 4
  %16 = sext i32 %15 to i64
  store i64 %16, ptr %5, align 8
  call void @llvm.lifetime.start.p0(i64 8, ptr %6) #7
  %17 = load i64, ptr %4, align 8
  %18 = load i64, ptr %5, align 8
  %19 = mul i64 %17, %18
  store i64 %19, ptr %6, align 8
  call void @llvm.lifetime.start.p0(i64 4, ptr %7) #7
  %20 = load ptr, ptr %3, align 8
  %21 = getelementptr inbounds nuw %struct.SDL_CameraSpec, ptr %20, i32 0, i32 0
  %22 = load i32, ptr %21, align 4
  store i32 %22, ptr %7, align 4
  %23 = load i32, ptr %7, align 4
  switch i32 %23, label %29 [
    i32 842094169, label %24
    i32 1448433993, label %24
    i32 842094158, label %24
    i32 825382478, label %24
  ]

24:                                               ; preds = %1, %1, %1, %1
  %25 = load i64, ptr %6, align 8
  %26 = load i64, ptr %6, align 8
  %27 = udiv i64 %26, 2
  %28 = add i64 %25, %27
  store i64 %28, ptr %2, align 8
  store i32 1, ptr %8, align 4
  br label %62

29:                                               ; preds = %1
  br label %30

30:                                               ; preds = %29
  %31 = load i64, ptr %6, align 8
  %32 = load i32, ptr %7, align 4
  %33 = icmp ne i32 %32, 0
  br i1 %33, label %34, label %54

34:                                               ; preds = %30
  %35 = load i32, ptr %7, align 4
  %36 = lshr i32 %35, 28
  %37 = and i32 %36, 15
  %38 = icmp ne i32 %37, 1
  br i1 %38, label %39, label %54

39:                                               ; preds = %34
  %40 = load i32, ptr %7, align 4
  %41 = icmp eq i32 %40, 844715353
  br i1 %41, label %51, label %42

42:                                               ; preds = %39
  %43 = load i32, ptr %7, align 4
  %44 = icmp eq i32 %43, 1498831189
  br i1 %44, label %51, label %45

45:                                               ; preds = %42
  %46 = load i32, ptr %7, align 4
  %47 = icmp eq i32 %46, 1431918169
  br i1 %47, label %51, label %48

48:                                               ; preds = %45
  %49 = load i32, ptr %7, align 4
  %50 = icmp eq i32 %49, 808530000
  br label %51

51:                                               ; preds = %48, %45, %42, %39
  %52 = phi i1 [ true, %45 ], [ true, %42 ], [ true, %39 ], [ %50, %48 ]
  %53 = select i1 %52, i32 2, i32 1
  br label %58

54:                                               ; preds = %34, %30
  %55 = load i32, ptr %7, align 4
  %56 = lshr i32 %55, 0
  %57 = and i32 %56, 255
  br label %58

58:                                               ; preds = %54, %51
  %59 = phi i32 [ %53, %51 ], [ %57, %54 ]
  %60 = zext i32 %59 to i64
  %61 = mul i64 %31, %60
  store i64 %61, ptr %2, align 8
  store i32 1, ptr %8, align 4
  br label %62

62:                                               ; preds = %58, %24
  call void @llvm.lifetime.end.p0(i64 4, ptr %7) #7
  call void @llvm.lifetime.end.p0(i64 8, ptr %6) #7
  call void @llvm.lifetime.end.p0(i64 8, ptr %5) #7
  call void @llvm.lifetime.end.p0(i64 8, ptr %4) #7
  %63 = load i64, ptr %2, align 8
  ret i64 %63
}

; Function Attrs: nounwind uwtable
define internal i32 @ZombieAcquireFrame(ptr noundef %0, ptr noundef %1, ptr noundef %2) #0 {
  %4 = alloca i32, align 4
  %5 = alloca ptr, align 8
  %6 = alloca ptr, align 8
  %7 = alloca ptr, align 8
  %8 = alloca ptr, align 8
  %9 = alloca i64, align 8
  %10 = alloca i32, align 4
  %11 = alloca ptr, align 8
  %12 = alloca i64, align 8
  %13 = alloca i64, align 8
  store ptr %0, ptr %5, align 8
  store ptr %1, ptr %6, align 8
  store ptr %2, ptr %7, align 8
  call void @llvm.lifetime.start.p0(i64 8, ptr %8) #7
  %14 = load ptr, ptr %5, align 8
  %15 = getelementptr inbounds nuw %struct.SDL_Camera, ptr %14, i32 0, i32 9
  store ptr %15, ptr %8, align 8
  %16 = load ptr, ptr %5, align 8
  %17 = getelementptr inbounds nuw %struct.SDL_Camera, ptr %16, i32 0, i32 22
  %18 = load ptr, ptr %17, align 8
  %19 = icmp ne ptr %18, null
  br i1 %19, label %130, label %20

20:                                               ; preds = %3
  call void @llvm.lifetime.start.p0(i64 8, ptr %9) #7
  %21 = load ptr, ptr %5, align 8
  %22 = getelementptr inbounds nuw %struct.SDL_Camera, ptr %21, i32 0, i32 9
  %23 = call i64 @GetFrameBufLen(ptr noundef %22)
  store i64 %23, ptr %9, align 8
  %24 = call i64 @SDL_GetSIMDAlignment_REAL()
  %25 = load i64, ptr %9, align 8
  %26 = call noalias ptr @SDL_aligned_alloc_REAL(i64 noundef %24, i64 noundef %25)
  %27 = load ptr, ptr %5, align 8
  %28 = getelementptr inbounds nuw %struct.SDL_Camera, ptr %27, i32 0, i32 22
  store ptr %26, ptr %28, align 8
  %29 = load ptr, ptr %5, align 8
  %30 = getelementptr inbounds nuw %struct.SDL_Camera, ptr %29, i32 0, i32 22
  %31 = load ptr, ptr %30, align 8
  %32 = icmp ne ptr %31, null
  br i1 %32, label %35, label %33

33:                                               ; preds = %20
  %34 = load ptr, ptr %7, align 8
  store i64 0, ptr %34, align 8
  store i32 1, ptr %4, align 4
  store i32 1, ptr %10, align 4
  br label %127

35:                                               ; preds = %20
  call void @llvm.lifetime.start.p0(i64 8, ptr %11) #7
  %36 = load ptr, ptr %5, align 8
  %37 = getelementptr inbounds nuw %struct.SDL_Camera, ptr %36, i32 0, i32 22
  %38 = load ptr, ptr %37, align 8
  store ptr %38, ptr %11, align 8
  %39 = load ptr, ptr %8, align 8
  %40 = getelementptr inbounds nuw %struct.SDL_CameraSpec, ptr %39, i32 0, i32 0
  %41 = load i32, ptr %40, align 4
  switch i32 %41, label %123 [
    i32 842094169, label %42
    i32 1448433993, label %42
    i32 842094158, label %42
    i32 825382478, label %42
    i32 844715353, label %71
    i32 1431918169, label %71
    i32 1498831189, label %97
  ]

42:                                               ; preds = %35, %35, %35, %35
  %43 = load ptr, ptr %11, align 8
  %44 = load ptr, ptr %8, align 8
  %45 = getelementptr inbounds nuw %struct.SDL_CameraSpec, ptr %44, i32 0, i32 2
  %46 = load i32, ptr %45, align 4
  %47 = load ptr, ptr %8, align 8
  %48 = getelementptr inbounds nuw %struct.SDL_CameraSpec, ptr %47, i32 0, i32 3
  %49 = load i32, ptr %48, align 4
  %50 = mul nsw i32 %46, %49
  %51 = sext i32 %50 to i64
  call void @llvm.memset.p0.i64(ptr align 1 %43, i8 0, i64 %51, i1 false)
  %52 = load ptr, ptr %11, align 8
  %53 = load ptr, ptr %8, align 8
  %54 = getelementptr inbounds nuw %struct.SDL_CameraSpec, ptr %53, i32 0, i32 2
  %55 = load i32, ptr %54, align 4
  %56 = load ptr, ptr %8, align 8
  %57 = getelementptr inbounds nuw %struct.SDL_CameraSpec, ptr %56, i32 0, i32 3
  %58 = load i32, ptr %57, align 4
  %59 = mul nsw i32 %55, %58
  %60 = sext i32 %59 to i64
  %61 = getelementptr inbounds i8, ptr %52, i64 %60
  %62 = load ptr, ptr %8, align 8
  %63 = getelementptr inbounds nuw %struct.SDL_CameraSpec, ptr %62, i32 0, i32 2
  %64 = load i32, ptr %63, align 4
  %65 = load ptr, ptr %8, align 8
  %66 = getelementptr inbounds nuw %struct.SDL_CameraSpec, ptr %65, i32 0, i32 3
  %67 = load i32, ptr %66, align 4
  %68 = mul nsw i32 %64, %67
  %69 = sdiv i32 %68, 2
  %70 = sext i32 %69 to i64
  call void @llvm.memset.p0.i64(ptr align 1 %61, i8 -128, i64 %70, i1 false)
  br label %126

71:                                               ; preds = %35, %35
  call void @llvm.lifetime.start.p0(i64 8, ptr %12) #7
  store i64 0, ptr %12, align 8
  br label %72

72:                                               ; preds = %93, %71
  %73 = load i64, ptr %12, align 8
  %74 = load i64, ptr %9, align 8
  %75 = icmp ult i64 %73, %74
  br i1 %75, label %77, label %76

76:                                               ; preds = %72
  store i32 3, ptr %10, align 4
  call void @llvm.lifetime.end.p0(i64 8, ptr %12) #7
  br label %96

77:                                               ; preds = %72
  %78 = load ptr, ptr %11, align 8
  %79 = load i64, ptr %12, align 8
  %80 = getelementptr inbounds nuw i8, ptr %78, i64 %79
  store i8 0, ptr %80, align 1
  %81 = load ptr, ptr %11, align 8
  %82 = load i64, ptr %12, align 8
  %83 = add i64 %82, 1
  %84 = getelementptr inbounds nuw i8, ptr %81, i64 %83
  store i8 -128, ptr %84, align 1
  %85 = load ptr, ptr %11, align 8
  %86 = load i64, ptr %12, align 8
  %87 = add i64 %86, 2
  %88 = getelementptr inbounds nuw i8, ptr %85, i64 %87
  store i8 0, ptr %88, align 1
  %89 = load ptr, ptr %11, align 8
  %90 = load i64, ptr %12, align 8
  %91 = add i64 %90, 3
  %92 = getelementptr inbounds nuw i8, ptr %89, i64 %91
  store i8 -128, ptr %92, align 1
  br label %93

93:                                               ; preds = %77
  %94 = load i64, ptr %12, align 8
  %95 = add i64 %94, 4
  store i64 %95, ptr %12, align 8
  br label %72, !llvm.loop !7

96:                                               ; preds = %76
  br label %126

97:                                               ; preds = %35
  call void @llvm.lifetime.start.p0(i64 8, ptr %13) #7
  store i64 0, ptr %13, align 8
  br label %98

98:                                               ; preds = %119, %97
  %99 = load i64, ptr %13, align 8
  %100 = load i64, ptr %9, align 8
  %101 = icmp ult i64 %99, %100
  br i1 %101, label %103, label %102

102:                                              ; preds = %98
  store i32 6, ptr %10, align 4
  call void @llvm.lifetime.end.p0(i64 8, ptr %13) #7
  br label %122

103:                                              ; preds = %98
  %104 = load ptr, ptr %11, align 8
  %105 = load i64, ptr %13, align 8
  %106 = getelementptr inbounds nuw i8, ptr %104, i64 %105
  store i8 -128, ptr %106, align 1
  %107 = load ptr, ptr %11, align 8
  %108 = load i64, ptr %13, align 8
  %109 = add i64 %108, 1
  %110 = getelementptr inbounds nuw i8, ptr %107, i64 %109
  store i8 0, ptr %110, align 1
  %111 = load ptr, ptr %11, align 8
  %112 = load i64, ptr %13, align 8
  %113 = add i64 %112, 2
  %114 = getelementptr inbounds nuw i8, ptr %111, i64 %113
  store i8 -128, ptr %114, align 1
  %115 = load ptr, ptr %11, align 8
  %116 = load i64, ptr %13, align 8
  %117 = add i64 %116, 3
  %118 = getelementptr inbounds nuw i8, ptr %115, i64 %117
  store i8 0, ptr %118, align 1
  br label %119

119:                                              ; preds = %103
  %120 = load i64, ptr %13, align 8
  %121 = add i64 %120, 4
  store i64 %121, ptr %13, align 8
  br label %98, !llvm.loop !8

122:                                              ; preds = %102
  br label %126

123:                                              ; preds = %35
  %124 = load ptr, ptr %11, align 8
  %125 = load i64, ptr %9, align 8
  call void @llvm.memset.p0.i64(ptr align 1 %124, i8 0, i64 %125, i1 false)
  br label %126

126:                                              ; preds = %123, %122, %96, %42
  call void @llvm.lifetime.end.p0(i64 8, ptr %11) #7
  store i32 0, ptr %10, align 4
  br label %127

127:                                              ; preds = %126, %33
  call void @llvm.lifetime.end.p0(i64 8, ptr %9) #7
  %128 = load i32, ptr %10, align 4
  switch i32 %128, label %202 [
    i32 0, label %129
  ]

129:                                              ; preds = %127
  br label %130

130:                                              ; preds = %129, %3
  %131 = call i64 @SDL_GetTicksNS_REAL()
  %132 = load ptr, ptr %7, align 8
  store i64 %131, ptr %132, align 8
  %133 = load ptr, ptr %5, align 8
  %134 = getelementptr inbounds nuw %struct.SDL_Camera, ptr %133, i32 0, i32 22
  %135 = load ptr, ptr %134, align 8
  %136 = load ptr, ptr %6, align 8
  %137 = getelementptr inbounds nuw %struct.SDL_Surface, ptr %136, i32 0, i32 5
  store ptr %135, ptr %137, align 8
  %138 = load ptr, ptr %8, align 8
  %139 = getelementptr inbounds nuw %struct.SDL_CameraSpec, ptr %138, i32 0, i32 2
  %140 = load i32, ptr %139, align 4
  %141 = load ptr, ptr %6, align 8
  %142 = getelementptr inbounds nuw %struct.SDL_Surface, ptr %141, i32 0, i32 4
  store i32 %140, ptr %142, align 8
  %143 = load ptr, ptr %8, align 8
  %144 = getelementptr inbounds nuw %struct.SDL_CameraSpec, ptr %143, i32 0, i32 0
  %145 = load i32, ptr %144, align 4
  %146 = icmp ne i32 %145, 0
  br i1 %146, label %147, label %154

147:                                              ; preds = %130
  %148 = load ptr, ptr %8, align 8
  %149 = getelementptr inbounds nuw %struct.SDL_CameraSpec, ptr %148, i32 0, i32 0
  %150 = load i32, ptr %149, align 4
  %151 = lshr i32 %150, 28
  %152 = and i32 %151, 15
  %153 = icmp ne i32 %152, 1
  br i1 %153, label %201, label %154

154:                                              ; preds = %147, %130
  %155 = load ptr, ptr %8, align 8
  %156 = getelementptr inbounds nuw %struct.SDL_CameraSpec, ptr %155, i32 0, i32 0
  %157 = load i32, ptr %156, align 4
  %158 = icmp ne i32 %157, 0
  br i1 %158, label %159, label %189

159:                                              ; preds = %154
  %160 = load ptr, ptr %8, align 8
  %161 = getelementptr inbounds nuw %struct.SDL_CameraSpec, ptr %160, i32 0, i32 0
  %162 = load i32, ptr %161, align 4
  %163 = lshr i32 %162, 28
  %164 = and i32 %163, 15
  %165 = icmp ne i32 %164, 1
  br i1 %165, label %166, label %189

166:                                              ; preds = %159
  %167 = load ptr, ptr %8, align 8
  %168 = getelementptr inbounds nuw %struct.SDL_CameraSpec, ptr %167, i32 0, i32 0
  %169 = load i32, ptr %168, align 4
  %170 = icmp eq i32 %169, 844715353
  br i1 %170, label %186, label %171

171:                                              ; preds = %166
  %172 = load ptr, ptr %8, align 8
  %173 = getelementptr inbounds nuw %struct.SDL_CameraSpec, ptr %172, i32 0, i32 0
  %174 = load i32, ptr %173, align 4
  %175 = icmp eq i32 %174, 1498831189
  br i1 %175, label %186, label %176

176:                                              ; preds = %171
  %177 = load ptr, ptr %8, align 8
  %178 = getelementptr inbounds nuw %struct.SDL_CameraSpec, ptr %177, i32 0, i32 0
  %179 = load i32, ptr %178, align 4
  %180 = icmp eq i32 %179, 1431918169
  br i1 %180, label %186, label %181

181:                                              ; preds = %176
  %182 = load ptr, ptr %8, align 8
  %183 = getelementptr inbounds nuw %struct.SDL_CameraSpec, ptr %182, i32 0, i32 0
  %184 = load i32, ptr %183, align 4
  %185 = icmp eq i32 %184, 808530000
  br label %186

186:                                              ; preds = %181, %176, %171, %166
  %187 = phi i1 [ true, %176 ], [ true, %171 ], [ true, %166 ], [ %185, %181 ]
  %188 = select i1 %187, i32 2, i32 1
  br label %195

189:                                              ; preds = %159, %154
  %190 = load ptr, ptr %8, align 8
  %191 = getelementptr inbounds nuw %struct.SDL_CameraSpec, ptr %190, i32 0, i32 0
  %192 = load i32, ptr %191, align 4
  %193 = lshr i32 %192, 0
  %194 = and i32 %193, 255
  br label %195

195:                                              ; preds = %189, %186
  %196 = phi i32 [ %188, %186 ], [ %194, %189 ]
  %197 = load ptr, ptr %6, align 8
  %198 = getelementptr inbounds nuw %struct.SDL_Surface, ptr %197, i32 0, i32 4
  %199 = load i32, ptr %198, align 8
  %200 = mul i32 %199, %196
  store i32 %200, ptr %198, align 8
  br label %201

201:                                              ; preds = %195, %147
  store i32 2, ptr %4, align 4
  store i32 1, ptr %10, align 4
  br label %202

202:                                              ; preds = %201, %127
  call void @llvm.lifetime.end.p0(i64 8, ptr %8) #7
  %203 = load i32, ptr %4, align 4
  ret i32 %203
}