; Function Attrs: nounwind uwtable
define internal range(i32 1, 3) i32 @ZombieAcquireFrame(ptr noundef captures(none) %0, ptr noundef writeonly captures(none) %1, ptr noundef writeonly captures(none) %2) #1 {
  %4 = getelementptr inbounds nuw i8, ptr %0, i64 60
  %5 = getelementptr inbounds nuw i8, ptr %0, i64 424
  %6 = load ptr, ptr %5, align 8
  %.not = icmp eq ptr %6, null
  br i1 %.not, label %7, label %.thread

7:                                                ; preds = %3
  %8 = getelementptr inbounds nuw i8, ptr %0, i64 68
  %9 = load i32, ptr %8, align 4
  %10 = sext i32 %9 to i64
  %11 = getelementptr inbounds nuw i8, ptr %0, i64 72
  %12 = load i32, ptr %11, align 4
  %13 = sext i32 %12 to i64
  %14 = mul nsw i64 %13, %10
  %15 = load i32, ptr %4, align 4
  switch i32 %15, label %19 [
    i32 842094169, label %16
    i32 1448433993, label %16
    i32 842094158, label %16
    i32 825382478, label %16
    i32 0, label %24
  ]

16:                                               ; preds = %7, %7, %7, %7
  %17 = lshr i64 %14, 1
  %18 = add i64 %17, %14
  br label %GetFrameBufLen.exit

19:                                               ; preds = %7
  %.mask.i = and i32 %15, -268435456
  %.not20.i = icmp eq i32 %.mask.i, 268435456
  br i1 %.not20.i, label %24, label %20

20:                                               ; preds = %19
  switch i32 %15, label %21 [
    i32 1498831189, label %26
    i32 1431918169, label %26
    i32 844715353, label %26
  ]

21:                                               ; preds = %20
  %22 = icmp eq i32 %15, 808530000
  %23 = select i1 %22, i32 2, i32 1
  br label %26

24:                                               ; preds = %19, %7
  %25 = and i32 %15, 255
  br label %26

26:                                               ; preds = %24, %21, %20, %20, %20
  %27 = phi i32 [ %25, %24 ], [ 2, %20 ], [ %23, %21 ], [ 2, %20 ], [ 2, %20 ]
  %28 = zext nneg i32 %27 to i64
  %29 = mul i64 %14, %28
  br label %GetFrameBufLen.exit

GetFrameBufLen.exit:                              ; preds = %16, %26
  %.0.i = phi i64 [ %29, %26 ], [ %18, %16 ]
  %30 = tail call i64 @SDL_GetSIMDAlignment_REAL() #11
  %31 = tail call noalias ptr @SDL_aligned_alloc_REAL(i64 noundef %30, i64 noundef %.0.i) #11
  store ptr %31, ptr %5, align 8
  %.not63.not = icmp eq ptr %31, null
  br i1 %.not63.not, label %56, label %32

32:                                               ; preds = %GetFrameBufLen.exit
  %33 = load i32, ptr %4, align 4
  switch i32 %33, label %55 [
    i32 842094169, label %34
    i32 1448433993, label %34
    i32 842094158, label %34
    i32 825382478, label %34
    i32 844715353, label %42
    i32 1431918169, label %42
    i32 1498831189, label %.preheader
  ]

.preheader:                                       ; preds = %32
  %.not74 = icmp eq i64 %.0.i, 0
  br i1 %.not74, label %.thread, label %.lr.ph

34:                                               ; preds = %32, %32, %32, %32
  %35 = load i32, ptr %8, align 4
  %36 = load i32, ptr %11, align 4
  %37 = mul nsw i32 %36, %35
  %38 = sext i32 %37 to i64
  tail call void @llvm.memset.p0.i64(ptr nonnull align 1 %31, i8 0, i64 %38, i1 false)
  %39 = getelementptr inbounds i8, ptr %31, i64 %38
  %40 = sdiv i32 %37, 2
  %41 = sext i32 %40 to i64
  tail call void @llvm.memset.p0.i64(ptr nonnull align 1 %39, i8 -128, i64 %41, i1 false)
  br label %.thread

42:                                               ; preds = %32, %32
  %.not75 = icmp eq i64 %.0.i, 0
  br i1 %.not75, label %.thread, label %.lr.ph73

.lr.ph73:                                         ; preds = %42, %.lr.ph73
  %.05772 = phi i64 [ %47, %.lr.ph73 ], [ 0, %42 ]
  %43 = getelementptr inbounds nuw i8, ptr %31, i64 %.05772
  store i8 0, ptr %43, align 1
  %44 = getelementptr inbounds nuw i8, ptr %43, i64 1
  store i8 -128, ptr %44, align 1
  %45 = getelementptr inbounds nuw i8, ptr %43, i64 2
  store i8 0, ptr %45, align 1
  %46 = getelementptr inbounds nuw i8, ptr %43, i64 3
  store i8 -128, ptr %46, align 1
  %47 = add nuw i64 %.05772, 4
  %48 = icmp ult i64 %47, %.0.i
  br i1 %48, label %.lr.ph73, label %.thread, !llvm.loop !5

.lr.ph:                                           ; preds = %.preheader, %.lr.ph
  %.071 = phi i64 [ %53, %.lr.ph ], [ 0, %.preheader ]
  %49 = getelementptr inbounds nuw i8, ptr %31, i64 %.071
  store i8 -128, ptr %49, align 1
  %50 = getelementptr inbounds nuw i8, ptr %49, i64 1
  store i8 0, ptr %50, align 1
  %51 = getelementptr inbounds nuw i8, ptr %49, i64 2
  store i8 -128, ptr %51, align 1
  %52 = getelementptr inbounds nuw i8, ptr %49, i64 3
  store i8 0, ptr %52, align 1
  %53 = add nuw i64 %.071, 4
  %54 = icmp ult i64 %53, %.0.i
  br i1 %54, label %.lr.ph, label %.thread, !llvm.loop !6

55:                                               ; preds = %32
  tail call void @llvm.memset.p0.i64(ptr nonnull align 1 %31, i8 0, i64 %.0.i, i1 false)
  br label %.thread

56:                                               ; preds = %GetFrameBufLen.exit
  store i64 0, ptr %2, align 8
  br label %67

.thread:                                          ; preds = %.lr.ph, %.lr.ph73, %.preheader, %42, %55, %34, %3
  %57 = tail call i64 @SDL_GetTicksNS_REAL() #11
  store i64 %57, ptr %2, align 8
  %58 = load ptr, ptr %5, align 8
  %59 = getelementptr inbounds nuw i8, ptr %1, i64 24
  store ptr %58, ptr %59, align 8
  %60 = getelementptr inbounds nuw i8, ptr %0, i64 68
  %61 = load i32, ptr %60, align 4
  %62 = getelementptr inbounds nuw i8, ptr %1, i64 16
  store i32 %61, ptr %62, align 8
  %63 = load i32, ptr %4, align 4
  %.not64 = icmp eq i32 %63, 0
  %.mask = and i32 %63, -268435456
  %.not65 = icmp eq i32 %.mask, 268435456
  %or.cond = or i1 %.not64, %.not65
  br i1 %or.cond, label %64, label %67

64:                                               ; preds = %.thread
  %65 = and i32 %63, 255
  %66 = mul i32 %65, %61
  store i32 %66, ptr %62, align 8
  br label %67

67:                                               ; preds = %56, %64, %.thread
  %.1 = phi i32 [ 1, %56 ], [ 2, %.thread ], [ 2, %64 ]
  ret i32 %.1
}